; Function Attrs: mustprogress nofree norecurse nosync nounwind willreturn memory(write, argmem: readwrite, inaccessiblemem: none) uwtable
define dso_local void @_ZN4llvm12VPRecipeBase12insertBeforeERNS_12VPBasicBlockENS_14ilist_iteratorINS_12ilist_detail12node_optionsIS0_Lb0ELb0EvLb0EvEELb0ELb0EEE(ptr noundef nonnull align 8 dereferenceable(104) %0, ptr noundef nonnull align 8 dereferenceable(128) %1, ptr %2) local_unnamed_addr #3 align 2 {
  %4 = getelementptr inbounds nuw i8, ptr %0, i64 88
  store ptr %1, ptr %4, align 8
  %5 = getelementptr inbounds i8, ptr %0, i64 24
  %6 = load ptr, ptr %2, align 8
  %7 = getelementptr inbounds i8, ptr %0, i64 32
  store ptr %2, ptr %7, align 8
  store ptr %6, ptr %5, align 8
  %8 = getelementptr inbounds nuw i8, ptr %6, i64 8
  store ptr %5, ptr %8, align 8
  store ptr %5, ptr %2, align 8
  ret void
}